; Function Attrs: nounwind uwtable
define hidden range(i32 0, 27) i32 @avifDecoderSetIOMemory(ptr noundef captures(none) %0, ptr noundef %1, i64 noundef %2) local_unnamed_addr #0 {
  %4 = tail call ptr @avifIOCreateMemoryReader(ptr noundef %1, i64 noundef %2) #13
  %.not = icmp eq ptr %4, null
  br i1 %.not, label %8, label %5

5:                                                ; preds = %3
  %6 = getelementptr inbounds nuw i8, ptr %0, i64 416
  %7 = load ptr, ptr %6, align 8
  tail call void @avifIODestroy(ptr noundef %7) #13
  store ptr %4, ptr %6, align 8
  br label %8

8:                                                ; preds = %3, %5
  %.0 = phi i32 [ 0, %5 ], [ 26, %3 ]
  ret i32 %.0
}